; Function Attrs: mustprogress nofree norecurse nosync nounwind willreturn memory(read, inaccessiblemem: none) uwtable
define noundef ptr @_ZN4LIEF3DEX4File9get_classEm(ptr nocapture noundef nonnull readonly align 8 dereferenceable(472) %0, i64 noundef %1) local_unnamed_addr #9 align 2 {
  %3 = getelementptr inbounds i8, ptr %0, i64 216
  %4 = load i64, ptr %3, align 8
  %.not.i = icmp ugt i64 %4, %1
  br i1 %.not.i, label %5, label %_ZNK4LIEF3DEX4File9get_classEm.exit

5:                                                ; preds = %2
  %6 = getelementptr inbounds i8, ptr %0, i64 424
  %7 = load ptr, ptr %6, align 8
  %8 = getelementptr inbounds %"class.std::unique_ptr.166", ptr %7, i64 %1
  %9 = load ptr, ptr %8, align 8
  br label %_ZNK4LIEF3DEX4File9get_classEm.exit

_ZNK4LIEF3DEX4File9get_classEm.exit:              ; preds = %2, %5
  %.0.i = phi ptr [ %9, %5 ], [ null, %2 ]
  ret ptr %.0.i
}